target datalayout = "e-m:e-p270:32:32-p271:32:32-p272:64:64-i64:64-i128:128-f80:128-n8:16:32:64-S128"
target triple = "x86_64-unknown-linux-gnu"

%"class.icu_75::UObject" = type { ptr }
%"class.icu_75::Normalizer2Impl" = type { %"class.icu_75::UObject", i16, i16, i16, i16, i16, i16, i16, i16, i16, i16, i16, i16, ptr, ptr, ptr, ptr, %"struct.icu_75::UInitOnce", ptr }
%"struct.icu_75::UInitOnce" = type { %"struct.std::atomic", i32 }
%"struct.std::atomic" = type { %"struct.std::__atomic_base" }
%"struct.std::__atomic_base" = type { i32 }

; Function Attrs: mustprogress nounwind uwtable
define linkonce_odr noundef signext i8 @_ZNK6icu_7515Normalizer2Impl31singleLeadMightHaveNonZeroFCD16Ei(ptr noundef nonnull align 8 dereferenceable(80) %this, i32 noundef %lead) #2 comdat align 2 {
entry:
  %retval = alloca i8, align 1
  %this.addr = alloca ptr, align 8
  %lead.addr = alloca i32, align 4
  %bits = alloca i8, align 1
  store ptr %this, ptr %this.addr, align 8
  store i32 %lead, ptr %lead.addr, align 4
  %this1 = load ptr, ptr %this.addr, align 8
  %smallFCD = getelementptr inbounds %"class.icu_75::Normalizer2Impl", ptr %this1, i32 0, i32 16
  %0 = load ptr, ptr %smallFCD, align 8
  %1 = load i32, ptr %lead.addr, align 4
  %shr = ashr i32 %1, 8
  %idxprom = sext i32 %shr to i64
  %arrayidx = getelementptr inbounds i8, ptr %0, i64 %idxprom
  %2 = load i8, ptr %arrayidx, align 1
  store i8 %2, ptr %bits, align 1
  %3 = load i8, ptr %bits, align 1
  %conv = zext i8 %3 to i32
  %cmp = icmp eq i32 %conv, 0
  br i1 %cmp, label %if.then, label %if.end

if.then:                                          ; preds = %entry
  store i8 0, ptr %retval, align 1
  br label %return

if.end:                                           ; preds = %entry
  %4 = load i8, ptr %bits, align 1
  %conv2 = zext i8 %4 to i32
  %5 = load i32, ptr %lead.addr, align 4
  %shr3 = ashr i32 %5, 5
  %and = and i32 %shr3, 7
  %shr4 = ashr i32 %conv2, %and
  %and5 = and i32 %shr4, 1
  %conv6 = trunc i32 %and5 to i8
  store i8 %conv6, ptr %retval, align 1
  br label %return

return:                                           ; preds = %if.end, %if.then
  %6 = load i8, ptr %retval, align 1
  ret i8 %6
}

; Function Attrs: mustprogress uwtable
define linkonce_odr noundef zeroext i16 @_ZNK6icu_7515Normalizer2Impl8getFCD16Ei(ptr noundef nonnull align 8 dereferenceable(80) %this, i32 noundef %c) #0 comdat align 2 {
entry:
  %retval = alloca i16, align 2
  %this.addr = alloca ptr, align 8
  %c.addr = alloca i32, align 4
  store ptr %this, ptr %this.addr, align 8
  store i32 %c, ptr %c.addr, align 4
  %this1 = load ptr, ptr %this.addr, align 8
  %0 = load i32, ptr %c.addr, align 4
  %minDecompNoCP = getelementptr inbounds %"class.icu_75::Normalizer2Impl", ptr %this1, i32 0, i32 1
  %1 = load i16, ptr %minDecompNoCP, align 8
  %conv = zext i16 %1 to i32
  %cmp = icmp slt i32 %0, %conv
  br i1 %cmp, label %if.then, label %if.else

if.then:                                          ; preds = %entry
  store i16 0, ptr %retval, align 2
  br label %return

if.else:                                          ; preds = %entry
  %2 = load i32, ptr %c.addr, align 4
  %cmp2 = icmp sle i32 %2, 65535
  br i1 %cmp2, label %if.then3, label %if.end5

if.then3:                                         ; preds = %if.else
  %3 = load i32, ptr %c.addr, align 4
  %call = call noundef signext i8 @_ZNK6icu_7515Normalizer2Impl31singleLeadMightHaveNonZeroFCD16Ei(ptr noundef nonnull align 8 dereferenceable(80) %this1, i32 noundef %3)
  %tobool = icmp ne i8 %call, 0
  br i1 %tobool, label %if.end, label %if.then4

if.then4:                                         ; preds = %if.then3
  store i16 0, ptr %retval, align 2
  br label %return

if.end:                                           ; preds = %if.then3
  br label %if.end5

if.end5:                                          ; preds = %if.end, %if.else
  br label %if.end6

if.end6:                                          ; preds = %if.end5
  %4 = load i32, ptr %c.addr, align 4
  %call7 = call noundef zeroext i16 @_ZNK6icu_7515Normalizer2Impl20getFCD16FromNormDataEi(ptr noundef nonnull align 8 dereferenceable(80) %this1, i32 noundef %4)
  store i16 %call7, ptr %retval, align 2
  br label %return

return:                                           ; preds = %if.end6, %if.then4, %if.then
  %5 = load i16, ptr %retval, align 2
  ret i16 %5
}

; Function Attrs: mustprogress uwtable
define void @_ZNK6icu_7515Normalizer2Impl12addLcccCharsERNS_10UnicodeSetE(ptr noundef nonnull align 8 dereferenceable(80) %this, ptr noundef nonnull align 8 dereferenceable(200) %set) #0 align 2 {
entry:
  %this.addr = alloca ptr, align 8
  %set.addr = alloca ptr, align 8
  %start = alloca i32, align 4
  %end = alloca i32, align 4
  %norm16 = alloca i32, align 4
  %fcd16 = alloca i16, align 2
  store ptr %this, ptr %this.addr, align 8
  store ptr %set, ptr %set.addr, align 8
  %this1 = load ptr, ptr %this.addr, align 8
  store i32 0, ptr %start, align 4
  br label %while.cond

while.cond:                                       ; preds = %if.end16, %entry
  %normTrie = getelementptr inbounds %"class.icu_75::Normalizer2Impl", ptr %this1, i32 0, i32 13
  %0 = load ptr, ptr %normTrie, align 8
  %1 = load i32, ptr %start, align 4
  %call = call i32 @ucptrie_getRange_75(ptr noundef %0, i32 noundef %1, i32 noundef 1, i32 noundef 1, ptr noundef null, ptr noundef null, ptr noundef %norm16)
  store i32 %call, ptr %end, align 4
  %cmp = icmp sge i32 %call, 0
  br i1 %cmp, label %while.body, label %while.end

while.body:                                       ; preds = %while.cond
  %2 = load i32, ptr %norm16, align 4
  %cmp2 = icmp ugt i32 %2, 64512
  br i1 %cmp2, label %land.lhs.true, label %if.else

land.lhs.true:                                    ; preds = %while.body
  %3 = load i32, ptr %norm16, align 4
  %cmp3 = icmp ne i32 %3, 65024
  br i1 %cmp3, label %if.then, label %if.else

if.then:                                          ; preds = %land.lhs.true
  %4 = load ptr, ptr %set.addr, align 8
  %5 = load i32, ptr %start, align 4
  %6 = load i32, ptr %end, align 4
  %call4 = call noundef nonnull align 8 dereferenceable(200) ptr @_ZN6icu_7510UnicodeSet3addEii(ptr noundef nonnull align 8 dereferenceable(200) %4, i32 noundef %5, i32 noundef %6)
  br label %if.end16

if.else:                                          ; preds = %land.lhs.true, %while.body
  %minNoNoCompNoMaybeCC = getelementptr inbounds %"class.icu_75::Normalizer2Impl", ptr %this1, i32 0, i32 8
  %7 = load i16, ptr %minNoNoCompNoMaybeCC, align 2
  %conv = zext i16 %7 to i32
  %8 = load i32, ptr %norm16, align 4
  %cmp5 = icmp ule i32 %conv, %8
  br i1 %cmp5, label %land.lhs.true6, label %if.end15

land.lhs.true6:                                   ; preds = %if.else
  %9 = load i32, ptr %norm16, align 4
  %limitNoNo = getelementptr inbounds %"class.icu_75::Normalizer2Impl", ptr %this1, i32 0, i32 10
  %10 = load i16, ptr %limitNoNo, align 2
  %conv7 = zext i16 %10 to i32
  %cmp8 = icmp ult i32 %9, %conv7
  br i1 %cmp8, label %if.then9, label %if.end15

if.then9:                                         ; preds = %land.lhs.true6
  %11 = load i32, ptr %start, align 4
  %call10 = call noundef zeroext i16 @_ZNK6icu_7515Normalizer2Impl8getFCD16Ei(ptr noundef nonnull align 8 dereferenceable(80) %this1, i32 noundef %11)
  store i16 %call10, ptr %fcd16, align 2
  %12 = load i16, ptr %fcd16, align 2
  %conv11 = zext i16 %12 to i32
  %cmp12 = icmp sgt i32 %conv11, 255
  br i1 %cmp12, label %if.then13, label %if.end

if.then13:                                        ; preds = %if.then9
  %13 = load ptr, ptr %set.addr, align 8
  %14 = load i32, ptr %start, align 4
  %15 = load i32, ptr %end, align 4
  %call14 = call noundef nonnull align 8 dereferenceable(200) ptr @_ZN6icu_7510UnicodeSet3addEii(ptr noundef nonnull align 8 dereferenceable(200) %13, i32 noundef %14, i32 noundef %15)
  br label %if.end

if.end:                                           ; preds = %if.then13, %if.then9
  br label %if.end15

if.end15:                                         ; preds = %if.end, %land.lhs.true6, %if.else
  br label %if.end16

if.end16:                                         ; preds = %if.end15, %if.then
  %16 = load i32, ptr %end, align 4
  %add = add nsw i32 %16, 1
  store i32 %add, ptr %start, align 4
  br label %while.cond, !llvm.loop !11

while.end:                                        ; preds = %while.cond
  ret void
}