; Function Attrs: mustprogress uwtable
define void @_ZNK6icu_7515Normalizer2Impl12addLcccCharsERNS_10UnicodeSetE(ptr nocapture noundef nonnull readonly align 8 dereferenceable(80) %this, ptr noundef nonnull align 8 dereferenceable(200) %set) local_unnamed_addr #0 align 2 {
entry:
  %norm16 = alloca i32, align 4
  %normTrie = getelementptr inbounds i8, ptr %this, i64 32
  %0 = load ptr, ptr %normTrie, align 8
  %call12 = call i32 @ucptrie_getRange_75(ptr noundef %0, i32 noundef 0, i32 noundef 1, i32 noundef 1, ptr noundef null, ptr noundef null, ptr noundef nonnull %norm16)
  %cmp13 = icmp sgt i32 %call12, -1
  br i1 %cmp13, label %while.body.lr.ph, label %while.end

while.body.lr.ph:                                 ; preds = %entry
  %minNoNoCompNoMaybeCC = getelementptr inbounds i8, ptr %this, i64 22
  %limitNoNo = getelementptr inbounds i8, ptr %this, i64 26
  %minDecompNoCP.i = getelementptr inbounds i8, ptr %this, i64 8
  %smallFCD.i.i = getelementptr inbounds i8, ptr %this, i64 56
  br label %while.body

while.body:                                       ; preds = %while.body.lr.ph, %if.end16
  %call15 = phi i32 [ %call12, %while.body.lr.ph ], [ %call, %if.end16 ]
  %start.014 = phi i32 [ 0, %while.body.lr.ph ], [ %add, %if.end16 ]
  %1 = load i32, ptr %norm16, align 4
  %cmp2 = icmp ugt i32 %1, 64512
  %cmp3 = icmp ne i32 %1, 65024
  %or.cond = and i1 %cmp2, %cmp3
  br i1 %or.cond, label %if.end16.sink.split, label %if.else

if.else:                                          ; preds = %while.body
  %2 = load i16, ptr %minNoNoCompNoMaybeCC, align 2
  %conv = zext i16 %2 to i32
  %cmp5.not = icmp ult i32 %1, %conv
  %3 = load i16, ptr %limitNoNo, align 2
  %conv7 = zext i16 %3 to i32
  %cmp8 = icmp uge i32 %1, %conv7
  %or.cond7.not11 = select i1 %cmp5.not, i1 true, i1 %cmp8
  %4 = load i16, ptr %minDecompNoCP.i, align 8
  %conv.i = zext i16 %4 to i32
  %cmp.i = icmp ult i32 %start.014, %conv.i
  %or.cond10 = select i1 %or.cond7.not11, i1 true, i1 %cmp.i
  br i1 %or.cond10, label %if.end16, label %if.else.i

if.else.i:                                        ; preds = %if.else
  %cmp2.i = icmp ult i32 %start.014, 65536
  br i1 %cmp2.i, label %if.then3.i, label %_ZNK6icu_7515Normalizer2Impl8getFCD16Ei.exit

if.then3.i:                                       ; preds = %if.else.i
  %5 = load ptr, ptr %smallFCD.i.i, align 8
  %shr.i.i = lshr i32 %start.014, 8
  %idxprom.i.i = zext nneg i32 %shr.i.i to i64
  %arrayidx.i.i = getelementptr inbounds i8, ptr %5, i64 %idxprom.i.i
  %6 = load i8, ptr %arrayidx.i.i, align 1
  %cmp.i.i = icmp eq i8 %6, 0
  %conv.i.i = zext i8 %6 to i32
  %shr3.i.i = lshr i32 %start.014, 5
  %and.i.i = and i32 %shr3.i.i, 7
  %7 = shl nuw nsw i32 1, %and.i.i
  %8 = and i32 %7, %conv.i.i
  %tobool.not4.i = icmp eq i32 %8, 0
  %tobool.not.i = select i1 %cmp.i.i, i1 true, i1 %tobool.not4.i
  br i1 %tobool.not.i, label %if.end16, label %_ZNK6icu_7515Normalizer2Impl8getFCD16Ei.exit

_ZNK6icu_7515Normalizer2Impl8getFCD16Ei.exit:     ; preds = %if.else.i, %if.then3.i
  %call7.i = call noundef zeroext i16 @_ZNK6icu_7515Normalizer2Impl20getFCD16FromNormDataEi(ptr noundef nonnull align 8 dereferenceable(80) %this, i32 noundef %start.014)
  %cmp12 = icmp ugt i16 %call7.i, 255
  br i1 %cmp12, label %if.end16.sink.split, label %if.end16

if.end16.sink.split:                              ; preds = %_ZNK6icu_7515Normalizer2Impl8getFCD16Ei.exit, %while.body
  %call14 = call noundef nonnull align 8 dereferenceable(200) ptr @_ZN6icu_7510UnicodeSet3addEii(ptr noundef nonnull align 8 dereferenceable(200) %set, i32 noundef %start.014, i32 noundef %call15)
  br label %if.end16

if.end16:                                         ; preds = %if.end16.sink.split, %if.then3.i, %if.else, %_ZNK6icu_7515Normalizer2Impl8getFCD16Ei.exit
  %add = add nuw nsw i32 %call15, 1
  %9 = load ptr, ptr %normTrie, align 8
  %call = call i32 @ucptrie_getRange_75(ptr noundef %9, i32 noundef %add, i32 noundef 1, i32 noundef 1, ptr noundef null, ptr noundef null, ptr noundef nonnull %norm16)
  %cmp = icmp sgt i32 %call, -1
  br i1 %cmp, label %while.body, label %while.end, !llvm.loop !12

while.end:                                        ; preds = %if.end16, %entry
  ret void
}